; Function Attrs: nounwind uwtable
define hidden i32 @mbedtls_rsa_pkcs1_encrypt(ptr noundef %0, ptr noundef %1, ptr noundef %2, i64 noundef %3, ptr noundef readonly captures(none) %4, ptr noundef %5) local_unnamed_addr #0 {
  %7 = getelementptr inbounds nuw i8, ptr %0, i64 224
  %8 = load i32, ptr %7, align 8, !tbaa !17
  switch i32 %8, label %mbedtls_rsa_rsaes_pkcs1_v15_encrypt.exit [
    i32 0, label %9
    i32 1, label %40
  ]

9:                                                ; preds = %6
  %10 = getelementptr inbounds nuw i8, ptr %0, i64 8
  %11 = load i64, ptr %10, align 8, !tbaa !12
  %12 = icmp ugt i64 %3, -12
  %13 = add nuw i64 %3, 11
  %14 = icmp ult i64 %11, %13
  %or.cond.i = select i1 %12, i1 true, i1 %14
  br i1 %or.cond.i, label %mbedtls_rsa_rsaes_pkcs1_v15_encrypt.exit, label %15

15:                                               ; preds = %9
  store i8 0, ptr %5, align 1, !tbaa !23
  %16 = icmp eq ptr %1, null
  br i1 %16, label %mbedtls_rsa_rsaes_pkcs1_v15_encrypt.exit, label %17

17:                                               ; preds = %15
  %18 = getelementptr inbounds nuw i8, ptr %5, i64 1
  %reass.sub.i = sub i64 %11, %3
  %19 = getelementptr inbounds nuw i8, ptr %5, i64 2
  store i8 2, ptr %18, align 1, !tbaa !23
  %.not52.i = icmp eq i64 %reass.sub.i, 3
  br i1 %.not52.i, label %._crit_edge.i, label %.preheader.preheader.i

.preheader.preheader.i:                           ; preds = %17
  %20 = add i64 %reass.sub.i, -4
  br label %.preheader.i

.preheader.i:                                     ; preds = %33, %.preheader.preheader.i
  %21 = phi i64 [ %35, %33 ], [ %20, %.preheader.preheader.i ]
  %.03553.i = phi ptr [ %34, %33 ], [ %19, %.preheader.preheader.i ]
  br label %22

22:                                               ; preds = %26, %.preheader.i
  %.0.i = phi i32 [ %27, %26 ], [ 100, %.preheader.i ]
  %23 = tail call i32 %1(ptr noundef %2, ptr noundef nonnull %.03553.i, i64 noundef 1) #14
  %24 = load i8, ptr %.03553.i, align 1, !tbaa !23
  %25 = icmp eq i8 %24, 0
  br i1 %25, label %26, label %.critedge.i

26:                                               ; preds = %22
  %27 = add nsw i32 %.0.i, -1
  %28 = icmp ne i32 %27, 0
  %29 = icmp eq i32 %23, 0
  %or.cond3.i = select i1 %28, i1 %29, i1 false
  br i1 %or.cond3.i, label %22, label %.critedge.i, !llvm.loop !27

.critedge.i:                                      ; preds = %26, %22
  %.1.i = phi i32 [ %27, %26 ], [ %.0.i, %22 ]
  %30 = icmp ne i32 %.1.i, 0
  %31 = icmp eq i32 %23, 0
  %or.cond.not.i = select i1 %30, i1 %31, i1 false
  br i1 %or.cond.not.i, label %33, label %.thread.i

.thread.i:                                        ; preds = %.critedge.i
  %32 = add nsw i32 %23, -17536
  br label %mbedtls_rsa_rsaes_pkcs1_v15_encrypt.exit

33:                                               ; preds = %.critedge.i
  %34 = getelementptr inbounds nuw i8, ptr %.03553.i, i64 1
  %35 = add i64 %21, -1
  %.not.i = icmp eq i64 %21, 0
  br i1 %.not.i, label %._crit_edge.i, label %.preheader.i

._crit_edge.i:                                    ; preds = %33, %17
  %.035.lcssa.i = phi ptr [ %19, %17 ], [ %34, %33 ]
  store i8 0, ptr %.035.lcssa.i, align 1, !tbaa !23
  %.not45.i = icmp eq i64 %3, 0
  br i1 %.not45.i, label %38, label %36

36:                                               ; preds = %._crit_edge.i
  %37 = getelementptr inbounds nuw i8, ptr %.035.lcssa.i, i64 1
  tail call void @llvm.memcpy.p0.p0.i64(ptr nonnull align 1 %37, ptr readonly align 1 %4, i64 %3, i1 false)
  br label %38

38:                                               ; preds = %36, %._crit_edge.i
  %39 = tail call i32 @mbedtls_rsa_public(ptr noundef %0, ptr noundef nonnull %5, ptr noundef nonnull %5)
  br label %mbedtls_rsa_rsaes_pkcs1_v15_encrypt.exit

40:                                               ; preds = %6
  %41 = tail call i32 @mbedtls_rsa_rsaes_oaep_encrypt(ptr noundef nonnull %0, ptr noundef %1, ptr noundef %2, ptr noundef null, i64 noundef 0, i64 noundef %3, ptr noundef %4, ptr noundef %5)
  br label %mbedtls_rsa_rsaes_pkcs1_v15_encrypt.exit

mbedtls_rsa_rsaes_pkcs1_v15_encrypt.exit:         ; preds = %38, %.thread.i, %15, %9, %6, %40
  %.0 = phi i32 [ %41, %40 ], [ -16640, %6 ], [ %39, %38 ], [ -16512, %9 ], [ -16512, %15 ], [ %32, %.thread.i ]
  ret i32 %.0
}